target datalayout = "e-m:e-p270:32:32-p271:32:32-p272:64:64-i64:64-i128:128-f80:128-n8:16:32:64-S128"
target triple = "x86_64-pc-linux-gnu"

@.str.316 = private unnamed_addr constant [12 x i8] c"readfuncs.c\00", align 1
@.str.322 = private unnamed_addr constant [27 x i8] c"unrecognized token: \22%.*s\22\00", align 1
@.str.323 = private unnamed_addr constant [31 x i8] c"incomplete Bitmapset structure\00", align 1
@__func__._readBitmapset = private unnamed_addr constant [15 x i8] c"_readBitmapset\00", align 1
@.str.324 = private unnamed_addr constant [33 x i8] c"unterminated Bitmapset structure\00", align 1
@.str.325 = private unnamed_addr constant [29 x i8] c"unrecognized integer: \22%.*s\22\00", align 1

; Function Attrs: nounwind uwtable
define internal ptr @_readBitmapset() #0 {
  %1 = alloca ptr, align 8
  %2 = alloca ptr, align 8
  %3 = alloca i32, align 4
  %4 = alloca i32, align 4
  %5 = alloca ptr, align 8
  %6 = alloca i32, align 4
  call void @llvm.lifetime.start.p0(i64 8, ptr %1) #9
  store ptr null, ptr %1, align 8
  call void @llvm.lifetime.start.p0(i64 8, ptr %2) #9
  call void @llvm.lifetime.start.p0(i64 4, ptr %3) #9
  %7 = call ptr @pg_strtok(ptr noundef %3)
  store ptr %7, ptr %2, align 8
  %8 = load ptr, ptr %2, align 8
  %9 = icmp eq ptr %8, null
  br i1 %9, label %10, label %21

10:                                               ; preds = %0
  br label %11

11:                                               ; preds = %10
  br i1 true, label %12, label %14

12:                                               ; preds = %11
  %13 = call zeroext i1 @errstart_cold(i32 noundef 21, ptr noundef null) #10
  br i1 %13, label %16, label %18

14:                                               ; preds = %11
  %15 = call zeroext i1 @errstart(i32 noundef 21, ptr noundef null)
  br i1 %15, label %16, label %18

16:                                               ; preds = %14, %12
  %17 = call i32 (ptr, ...) @errmsg_internal(ptr noundef @.str.323)
  call void @errfinish(ptr noundef @.str.316, i32 noundef 211, ptr noundef @__func__._readBitmapset)
  br label %18

18:                                               ; preds = %16, %14, %12
  unreachable

19:                                               ; No predecessors!
  br label %20

20:                                               ; preds = %19
  br label %21

21:                                               ; preds = %20, %0
  %22 = load i32, ptr %3, align 4
  %23 = icmp ne i32 %22, 1
  br i1 %23, label %30, label %24

24:                                               ; preds = %21
  %25 = load ptr, ptr %2, align 8
  %26 = getelementptr inbounds i8, ptr %25, i64 0
  %27 = load i8, ptr %26, align 1
  %28 = sext i8 %27 to i32
  %29 = icmp ne i32 %28, 40
  br i1 %29, label %30, label %43

30:                                               ; preds = %24, %21
  br label %31

31:                                               ; preds = %30
  br i1 true, label %32, label %34

32:                                               ; preds = %31
  %33 = call zeroext i1 @errstart_cold(i32 noundef 21, ptr noundef null) #10
  br i1 %33, label %36, label %40

34:                                               ; preds = %31
  %35 = call zeroext i1 @errstart(i32 noundef 21, ptr noundef null)
  br i1 %35, label %36, label %40

36:                                               ; preds = %34, %32
  %37 = load i32, ptr %3, align 4
  %38 = load ptr, ptr %2, align 8
  %39 = call i32 (ptr, ...) @errmsg_internal(ptr noundef @.str.322, i32 noundef %37, ptr noundef %38)
  call void @errfinish(ptr noundef @.str.316, i32 noundef 213, ptr noundef @__func__._readBitmapset)
  br label %40

40:                                               ; preds = %36, %34, %32
  unreachable

41:                                               ; No predecessors!
  br label %42

42:                                               ; preds = %41
  br label %43

43:                                               ; preds = %42, %24
  %44 = call ptr @pg_strtok(ptr noundef %3)
  store ptr %44, ptr %2, align 8
  %45 = load ptr, ptr %2, align 8
  %46 = icmp eq ptr %45, null
  br i1 %46, label %47, label %58

47:                                               ; preds = %43
  br label %48

48:                                               ; preds = %47
  br i1 true, label %49, label %51

49:                                               ; preds = %48
  %50 = call zeroext i1 @errstart_cold(i32 noundef 21, ptr noundef null) #10
  br i1 %50, label %53, label %55

51:                                               ; preds = %48
  %52 = call zeroext i1 @errstart(i32 noundef 21, ptr noundef null)
  br i1 %52, label %53, label %55

53:                                               ; preds = %51, %49
  %54 = call i32 (ptr, ...) @errmsg_internal(ptr noundef @.str.323)
  call void @errfinish(ptr noundef @.str.316, i32 noundef 217, ptr noundef @__func__._readBitmapset)
  br label %55

55:                                               ; preds = %53, %51, %49
  unreachable

56:                                               ; No predecessors!
  br label %57

57:                                               ; preds = %56
  br label %58

58:                                               ; preds = %57, %43
  %59 = load i32, ptr %3, align 4
  %60 = icmp ne i32 %59, 1
  br i1 %60, label %67, label %61

61:                                               ; preds = %58
  %62 = load ptr, ptr %2, align 8
  %63 = getelementptr inbounds i8, ptr %62, i64 0
  %64 = load i8, ptr %63, align 1
  %65 = sext i8 %64 to i32
  %66 = icmp ne i32 %65, 98
  br i1 %66, label %67, label %80

67:                                               ; preds = %61, %58
  br label %68

68:                                               ; preds = %67
  br i1 true, label %69, label %71

69:                                               ; preds = %68
  %70 = call zeroext i1 @errstart_cold(i32 noundef 21, ptr noundef null) #10
  br i1 %70, label %73, label %77

71:                                               ; preds = %68
  %72 = call zeroext i1 @errstart(i32 noundef 21, ptr noundef null)
  br i1 %72, label %73, label %77

73:                                               ; preds = %71, %69
  %74 = load i32, ptr %3, align 4
  %75 = load ptr, ptr %2, align 8
  %76 = call i32 (ptr, ...) @errmsg_internal(ptr noundef @.str.322, i32 noundef %74, ptr noundef %75)
  call void @errfinish(ptr noundef @.str.316, i32 noundef 219, ptr noundef @__func__._readBitmapset)
  br label %77

77:                                               ; preds = %73, %71, %69
  unreachable

78:                                               ; No predecessors!
  br label %79

79:                                               ; preds = %78
  br label %80

80:                                               ; preds = %79, %61
  br label %81

81:                                               ; preds = %135, %80
  call void @llvm.lifetime.start.p0(i64 4, ptr %4) #9
  call void @llvm.lifetime.start.p0(i64 8, ptr %5) #9
  %82 = call ptr @pg_strtok(ptr noundef %3)
  store ptr %82, ptr %2, align 8
  %83 = load ptr, ptr %2, align 8
  %84 = icmp eq ptr %83, null
  br i1 %84, label %85, label %96

85:                                               ; preds = %81
  br label %86

86:                                               ; preds = %85
  br i1 true, label %87, label %89

87:                                               ; preds = %86
  %88 = call zeroext i1 @errstart_cold(i32 noundef 21, ptr noundef null) #10
  br i1 %88, label %91, label %93

89:                                               ; preds = %86
  %90 = call zeroext i1 @errstart(i32 noundef 21, ptr noundef null)
  br i1 %90, label %91, label %93

91:                                               ; preds = %89, %87
  %92 = call i32 (ptr, ...) @errmsg_internal(ptr noundef @.str.324)
  call void @errfinish(ptr noundef @.str.316, i32 noundef 228, ptr noundef @__func__._readBitmapset)
  br label %93

93:                                               ; preds = %91, %89, %87
  unreachable

94:                                               ; No predecessors!
  br label %95

95:                                               ; preds = %94
  br label %96

96:                                               ; preds = %95, %81
  %97 = load i32, ptr %3, align 4
  %98 = icmp eq i32 %97, 1
  br i1 %98, label %99, label %106

99:                                               ; preds = %96
  %100 = load ptr, ptr %2, align 8
  %101 = getelementptr inbounds i8, ptr %100, i64 0
  %102 = load i8, ptr %101, align 1
  %103 = sext i8 %102 to i32
  %104 = icmp eq i32 %103, 41
  br i1 %104, label %105, label %106

105:                                              ; preds = %99
  store i32 10, ptr %6, align 4
  br label %133

106:                                              ; preds = %99, %96
  %107 = load ptr, ptr %2, align 8
  %108 = call i64 @strtol(ptr noundef %107, ptr noundef %5, i32 noundef 10) #9
  %109 = trunc i64 %108 to i32
  store i32 %109, ptr %4, align 4
  %110 = load ptr, ptr %5, align 8
  %111 = load ptr, ptr %2, align 8
  %112 = load i32, ptr %3, align 4
  %113 = sext i32 %112 to i64
  %114 = getelementptr inbounds i8, ptr %111, i64 %113
  %115 = icmp ne ptr %110, %114
  br i1 %115, label %116, label %129

116:                                              ; preds = %106
  br label %117

117:                                              ; preds = %116
  br i1 true, label %118, label %120

118:                                              ; preds = %117
  %119 = call zeroext i1 @errstart_cold(i32 noundef 21, ptr noundef null) #10
  br i1 %119, label %122, label %126

120:                                              ; preds = %117
  %121 = call zeroext i1 @errstart(i32 noundef 21, ptr noundef null)
  br i1 %121, label %122, label %126

122:                                              ; preds = %120, %118
  %123 = load i32, ptr %3, align 4
  %124 = load ptr, ptr %2, align 8
  %125 = call i32 (ptr, ...) @errmsg_internal(ptr noundef @.str.325, i32 noundef %123, ptr noundef %124)
  call void @errfinish(ptr noundef @.str.316, i32 noundef 233, ptr noundef @__func__._readBitmapset)
  br label %126

126:                                              ; preds = %122, %120, %118
  unreachable

127:                                              ; No predecessors!
  br label %128

128:                                              ; preds = %127
  br label %129

129:                                              ; preds = %128, %106
  %130 = load ptr, ptr %1, align 8
  %131 = load i32, ptr %4, align 4
  %132 = call ptr @bms_add_member(ptr noundef %130, i32 noundef %131)
  store ptr %132, ptr %1, align 8
  store i32 0, ptr %6, align 4
  br label %133

133:                                              ; preds = %129, %105
  call void @llvm.lifetime.end.p0(i64 8, ptr %5) #9
  call void @llvm.lifetime.end.p0(i64 4, ptr %4) #9
  %134 = load i32, ptr %6, align 4
  switch i32 %134, label %138 [
    i32 0, label %135
    i32 10, label %136
  ]

135:                                              ; preds = %133
  br label %81

136:                                              ; preds = %133
  %137 = load ptr, ptr %1, align 8
  store i32 1, ptr %6, align 4
  call void @llvm.lifetime.end.p0(i64 4, ptr %3) #9
  call void @llvm.lifetime.end.p0(i64 8, ptr %2) #9
  call void @llvm.lifetime.end.p0(i64 8, ptr %1) #9
  ret ptr %137

138:                                              ; preds = %133
  unreachable
}