; Function Attrs: nounwind uwtable
define internal fastcc ptr @_readBitmapset() unnamed_addr #0 {
  %1 = alloca i32, align 4
  %2 = alloca ptr, align 8
  call void @llvm.lifetime.start.p0(i64 4, ptr nonnull %1) #10
  %3 = call ptr @pg_strtok(ptr noundef nonnull %1) #10
  %4 = icmp eq ptr %3, null
  br i1 %4, label %5, label %8

5:                                                ; preds = %0
  %6 = call zeroext i1 @errstart_cold(i32 noundef 21, ptr noundef null) #11
  call void @llvm.assume(i1 %6)
  %7 = call i32 (ptr, ...) @errmsg_internal(ptr noundef nonnull @.str.323) #10
  call void @errfinish(ptr noundef nonnull @.str.316, i32 noundef 211, ptr noundef nonnull @__func__._readBitmapset) #10
  unreachable

8:                                                ; preds = %0
  %9 = load i32, ptr %1, align 4
  %.not = icmp eq i32 %9, 1
  br i1 %.not, label %10, label %12

10:                                               ; preds = %8
  %11 = load i8, ptr %3, align 1
  %.not18 = icmp eq i8 %11, 40
  br i1 %.not18, label %16, label %12

12:                                               ; preds = %10, %8
  %13 = call zeroext i1 @errstart_cold(i32 noundef 21, ptr noundef null) #11
  call void @llvm.assume(i1 %13)
  %14 = load i32, ptr %1, align 4
  %15 = call i32 (ptr, ...) @errmsg_internal(ptr noundef nonnull @.str.322, i32 noundef %14, ptr noundef nonnull %3) #10
  call void @errfinish(ptr noundef nonnull @.str.316, i32 noundef 213, ptr noundef nonnull @__func__._readBitmapset) #10
  unreachable

16:                                               ; preds = %10
  %17 = call ptr @pg_strtok(ptr noundef nonnull %1) #10
  %18 = icmp eq ptr %17, null
  br i1 %18, label %19, label %22

19:                                               ; preds = %16
  %20 = call zeroext i1 @errstart_cold(i32 noundef 21, ptr noundef null) #11
  call void @llvm.assume(i1 %20)
  %21 = call i32 (ptr, ...) @errmsg_internal(ptr noundef nonnull @.str.323) #10
  call void @errfinish(ptr noundef nonnull @.str.316, i32 noundef 217, ptr noundef nonnull @__func__._readBitmapset) #10
  unreachable

22:                                               ; preds = %16
  %23 = load i32, ptr %1, align 4
  %.not19 = icmp eq i32 %23, 1
  br i1 %.not19, label %24, label %28

24:                                               ; preds = %22
  %25 = load i8, ptr %17, align 1
  %.not20 = icmp eq i8 %25, 98
  br i1 %.not20, label %.preheader, label %28

.preheader:                                       ; preds = %24
  call void @llvm.lifetime.start.p0(i64 8, ptr nonnull %2) #10
  %26 = call ptr @pg_strtok(ptr noundef nonnull %1) #10
  %27 = icmp eq ptr %26, null
  br i1 %27, label %._crit_edge, label %.lr.ph

28:                                               ; preds = %24, %22
  %29 = call zeroext i1 @errstart_cold(i32 noundef 21, ptr noundef null) #11
  call void @llvm.assume(i1 %29)
  %30 = load i32, ptr %1, align 4
  %31 = call i32 (ptr, ...) @errmsg_internal(ptr noundef nonnull @.str.322, i32 noundef %30, ptr noundef nonnull %17) #10
  call void @errfinish(ptr noundef nonnull @.str.316, i32 noundef 219, ptr noundef nonnull @__func__._readBitmapset) #10
  unreachable

._crit_edge:                                      ; preds = %50, %.preheader
  %32 = call zeroext i1 @errstart_cold(i32 noundef 21, ptr noundef null) #11
  call void @llvm.assume(i1 %32)
  %33 = call i32 (ptr, ...) @errmsg_internal(ptr noundef nonnull @.str.324) #10
  call void @errfinish(ptr noundef nonnull @.str.316, i32 noundef 228, ptr noundef nonnull @__func__._readBitmapset) #10
  unreachable

.lr.ph:                                           ; preds = %.preheader, %50
  %34 = phi ptr [ %53, %50 ], [ %26, %.preheader ]
  %.01430 = phi ptr [ %52, %50 ], [ null, %.preheader ]
  %35 = load i32, ptr %1, align 4
  %36 = icmp eq i32 %35, 1
  br i1 %36, label %37, label %40

37:                                               ; preds = %.lr.ph
  %38 = load i8, ptr %34, align 1
  %39 = icmp eq i8 %38, 41
  br i1 %39, label %55, label %40

40:                                               ; preds = %37, %.lr.ph
  %41 = call i64 @strtol(ptr noundef nonnull %34, ptr noundef nonnull %2, i32 noundef 10) #10
  %42 = load ptr, ptr %2, align 8
  %43 = load i32, ptr %1, align 4
  %44 = sext i32 %43 to i64
  %45 = getelementptr inbounds i8, ptr %34, i64 %44
  %.not21 = icmp eq ptr %42, %45
  br i1 %.not21, label %50, label %46

46:                                               ; preds = %40
  %47 = call zeroext i1 @errstart_cold(i32 noundef 21, ptr noundef null) #11
  call void @llvm.assume(i1 %47)
  %48 = load i32, ptr %1, align 4
  %49 = call i32 (ptr, ...) @errmsg_internal(ptr noundef nonnull @.str.325, i32 noundef %48, ptr noundef nonnull %34) #10
  call void @errfinish(ptr noundef nonnull @.str.316, i32 noundef 233, ptr noundef nonnull @__func__._readBitmapset) #10
  unreachable

50:                                               ; preds = %40
  %51 = trunc i64 %41 to i32
  %52 = call ptr @bms_add_member(ptr noundef %.01430, i32 noundef %51) #10
  call void @llvm.lifetime.end.p0(i64 8, ptr nonnull %2) #10
  call void @llvm.lifetime.start.p0(i64 8, ptr nonnull %2) #10
  %53 = call ptr @pg_strtok(ptr noundef nonnull %1) #10
  %54 = icmp eq ptr %53, null
  br i1 %54, label %._crit_edge, label %.lr.ph

55:                                               ; preds = %37
  call void @llvm.lifetime.end.p0(i64 8, ptr nonnull %2) #10
  call void @llvm.lifetime.end.p0(i64 4, ptr nonnull %1) #10
  ret ptr %.01430
}